(ikeras_frcnn.config
Config
p0
(dp1
S'use_vertical_flips'
p2
I00
sS'verbose'
p3
I01
sS'classifier_regr_std'
p4
(lp5
F8.0
aF8.0
aF4.0
aF4.0
asS'classifier_min_overlap'
p6
F0.1
sS'rot_90'
p7
I00
sS'class_mapping'
p8
(dp9
S'antelope'
p10
I172
sS'toaster'
p11
I85
sS'popsicle'
p12
I98
sS'camel'
p13
I83
sS'fox'
p14
I159
sS'laptop'
p15
I11
sS'bell pepper'
p16
I74
sS'spatula'
p17
I91
sS'artichoke'
p18
I72
sS'flower pot'
p19
I6
sS'chair'
p20
I2
sS'dumbbell'
p21
I18
sS'pencil sharpener'
p22
I164
sS'brassiere'
p23
I26
sS'backpack'
p24
I33
sS'balance beam'
p25
I160
sS'diaper'
p26
I24
sS'orange'
p27
I39
sS'piano'
p28
I64
sS'ski'
p29
I135
sS'stove'
p30
I25
sS'digital clock'
p31
I29
sS'ping-pong ball'
p32
I81
sS'dragonfly'
p33
I119
sS'sunglasses'
p34
I21
sS'head cabbage'
p35
I90
sS'ruler'
p36
I86
sS'miniskirt'
p37
I7
sS'screwdriver'
p38
I89
sS'bear'
p39
I155
sS'chain saw'
p40
I78
sS'vacuum'
p41
I31
sS'tick'
p42
I171
sS'bathing cap'
p43
I101
sS'coffee maker'
p44
I42
sS'croquet ball'
p45
I105
sS'banjo'
p46
I51
sS'apple'
p47
I46
sS'power drill'
p48
I80
sS'sofa'
p49
I0
sS'pretzel'
p50
I117
sS'punching bag'
p51
I93
sS'perfume'
p52
I54
sS'baby bed'
p53
I17
sS'saxophone'
p54
I116
sS'filing cabinet'
p55
I34
sS'motorcycle'
p56
I97
sS'turtle'
p57
I154
sS'bicycle'
p58
I36
sS'nail'
p59
I87
sS'lion'
p60
I127
sS'lobster'
p61
I112
sS'zebra'
p62
I168
sS'cattle'
p63
I118
sS'trombone'
p64
I71
sS'crutch'
p65
I41
sS'hammer'
p66
I67
sS'harp'
p67
I92
sS'red panda'
p68
I156
sS'rubber eraser'
p69
I95
sS'lipstick'
p70
I99
sS'tennis ball'
p71
I152
sS'computer mouse'
p72
I38
sS'lizard'
p73
I162
sS'microwave'
p74
I55
sS'cup or mug'
p75
I15
sS'washer'
p76
I65
sS'bird'
p77
I122
sS'computer keyboard'
p78
I13
sS'bg'
p79
I177
sS'giant panda'
p80
I161
sS'cocktail shaker'
p81
I100
sS'cart'
p82
I114
sS'guitar'
p83
I9
sS'binder'
p84
I63
sS'remote control'
p85
I10
sS'baseball'
p86
I139
sS'goldfish'
p87
I96
sS'strainer'
p88
I79
sS'beaker'
p89
I76
sS'drum'
p90
I48
sS'accordion'
p91
I57
sS'bow'
p92
I115
sS'hair spray'
p93
I151
sS'face powder'
p94
I53
sS'swine'
p95
I140
sS'corkscrew'
p96
I146
sS'salt or pepper shaker'
p97
I59
sS'stretcher'
p98
I134
sS'guacamole'
p99
I84
sS'maillot'
p100
I102
sS'puck'
p101
I175
sS'isopod'
p102
I170
sS'table'
p103
I5
sS'wine bottle'
p104
I27
sS'sheep'
p105
I138
sS'horse'
p106
I111
sS'basketball'
p107
I130
sS'monkey'
p108
I30
sS'waffle iron'
p109
I73
sS'snowplow'
p110
I165
sS'traffic light'
p111
I124
sS'chime'
p112
I123
sS'frog'
p113
I174
sS'plastic bag'
p114
I56
sS'snowmobile'
p115
I136
sS'banana'
p116
I45
sS'fig'
p117
I166
sS'soap dispenser'
p118
I61
sS'ladybug'
p119
I176
sS'golfcart'
p120
I120
sS'domestic cat'
p121
I19
sS'squirrel'
p122
I158
sS'mushroom'
p123
I94
sS'oboe'
p124
I141
sS'bus'
p125
I132
sS'pitcher'
p126
I14
sS'watercraft'
p127
I113
sS'stethoscope'
p128
I28
sS'tv or monitor'
p129
I4
sS'rabbit'
p130
I144
sS'bookshelf'
p131
I8
sS'otter'
p132
I157
sS'car'
p133
I50
sS'tape player'
p134
I133
sS'bee'
p135
I125
sS'strawberry'
p136
I47
sS'centipede'
p137
I169
sS'cello'
p138
I66
sS'band aid'
p139
I62
sS'porcupine'
p140
I1
sS'rugby ball'
p141
I153
sS'hamburger'
p142
I70
sS'koala bear'
p143
I142
sS'seal'
p144
I129
sS'purse'
p145
I40
sS'neck brace'
p146
I68
sS'ant'
p147
I173
sS'racket'
p148
I109
sS'violin'
p149
I43
sS'airplane'
p150
I143
sS'trumpet'
p151
I88
sS'cream'
p152
I77
sS'helmet'
p153
I110
sS'microphone'
p154
I49
sS'lemon'
p155
I23
sS'starfish'
p156
I107
sS'ladle'
p157
I37
sS'bowl'
p158
I16
sS'bagel'
p159
I75
sS'lamp'
p160
I12
sS'milk can'
p161
I149
sS'elephant'
p162
I106
sS'frying pan'
p163
I35
sS'tie'
p164
I58
sS'hippopotamus'
p165
I167
sS'pizza'
p166
I82
sS'butterfly'
p167
I163
sS'french horn'
p168
I131
sS'printer'
p169
I52
sS'water bottle'
p170
I20
sS'pomegranate'
p171
I148
sS'flute'
p172
I128
sS'hair dryer'
p173
I150
sS'cucumber'
p174
I147
sS'soccer ball'
p175
I103
sS'whale'
p176
I145
sS'refrigerator'
p177
I32
sS'jellyfish'
p178
I108
sS'skunk'
p179
I126
sS'hat with a wide brim'
p180
I44
sS'dog'
p181
I22
sS'volleyball'
p182
I104
sS'person'
p183
I3
sS'axe'
p184
I69
sS'armadillo'
p185
I121
sS'hotdog'
p186
I60
sS'snake'
p187
I137
ssS'use_horizontal_flips'
p188
I00
sS'rpn_max_overlap'
p189
F0.7
sS'network'
p190
S'resnet50'
p191
sS'img_channel_mean'
p192
(lp193
F103.939
aF116.779
aF123.68
asS'balanced_classes'
p194
I00
sS'anchor_box_ratios'
p195
(lp196
(lp197
I1
aI1
aa(lp198
I1
aI2
aa(lp199
I2
aI1
aasS'img_scaling_factor'
p200
F1.0
sS'rpn_stride'
p201
I16
sS'num_rois'
p202
I32
sS'base_net_weights'
p203
S'resnet50_weights_tf_dim_ordering_tf_kernels_notop.h5'
p204
sS'anchor_box_scales'
p205
(lp206
I128
aI256
aI512
asS'rpn_min_overlap'
p207
F0.3
sS'model_path'
p208
S'Model/model_frcnn.hdf5'
p209
sS'classifier_max_overlap'
p210
F0.5
sS'std_scaling'
p211
F4.0
sS'im_size'
p212
I600
sb.
